; Function Attrs: nounwind sspstrong uwtable
define internal fastcc i64 @rest_arg(i64 noundef %0, ptr noundef %1) unnamed_addr #0 {
  %magicptr = ptrtoint ptr %1 to i64
  switch i64 %magicptr, label %3 [
    i64 -1, label %8
    i64 0, label %11
  ]

3:                                                ; preds = %2
  %4 = load i64, ptr @rb_cNode, align 8, !tbaa !47
  %5 = tail call i64 @rb_data_typed_object_zalloc(i64 noundef %4, i64 noundef 16, ptr noundef nonnull @rb_node_type) #11
  %6 = tail call ptr @rb_check_typeddata(i64 noundef %5, ptr noundef nonnull @rb_node_type) #11
  store i64 %0, ptr %6, align 8, !tbaa !70
  %7 = getelementptr inbounds nuw i8, ptr %6, i64 8
  store ptr %1, ptr %7, align 8, !tbaa !72
  br label %11

8:                                                ; preds = %2
  %.pr.i.i = load i64, ptr @no_name_rest.rbimpl_id, align 8, !tbaa !47
  %.not4.i.i = icmp eq i64 %.pr.i.i, 0
  br i1 %.not4.i.i, label %.lr.ph.i.i, label %no_name_rest.exit

.lr.ph.i.i:                                       ; preds = %8, %.lr.ph.i.i
  %9 = tail call i64 @rb_intern2(ptr noundef nonnull @.str.41, i64 noundef 25) #11
  store i64 %9, ptr @no_name_rest.rbimpl_id, align 8, !tbaa !47
  %.not.i.i = icmp eq i64 %9, 0
  br i1 %.not.i.i, label %.lr.ph.i.i, label %no_name_rest.exit, !llvm.loop !112

no_name_rest.exit:                                ; preds = %.lr.ph.i.i, %8
  %.lcssa.i.i = phi i64 [ %.pr.i.i, %8 ], [ %9, %.lr.ph.i.i ]
  %10 = tail call i64 @rb_id2sym(i64 noundef %.lcssa.i.i) #11
  br label %11

11:                                               ; preds = %2, %3, %no_name_rest.exit
  %12 = phi i64 [ %10, %no_name_rest.exit ], [ %5, %3 ], [ 4, %2 ]
  ret i64 %12
}